; Function Attrs: nounwind uwtable
define hidden i32 @SDL_GetJoystickPowerInfo_REAL(ptr noundef %0, ptr noundef writeonly captures(address_is_null) %1) local_unnamed_addr #1 {
  %.not = icmp eq ptr %1, null
  br i1 %.not, label %4, label %3

3:                                                ; preds = %2
  store i32 -1, ptr %1, align 4
  br label %4

4:                                                ; preds = %3, %2
  %5 = tail call i32 @SDL_AddAtomicInt_REAL(ptr noundef nonnull @SDL_joystick_lock_pending, i32 noundef 1) #13
  %6 = load ptr, ptr @SDL_joystick_lock, align 8
  tail call void @SDL_LockMutex_REAL(ptr noundef %6) #13
  %7 = tail call i32 @SDL_AddAtomicInt_REAL(ptr noundef nonnull @SDL_joystick_lock_pending, i32 noundef -1) #13
  %8 = load i32, ptr @SDL_joysticks_locked, align 4
  %9 = add nsw i32 %8, 1
  store i32 %9, ptr @SDL_joysticks_locked, align 4
  %10 = tail call zeroext i1 @SDL_ObjectValid(ptr noundef %0, i32 noundef 4) #13
  br i1 %10, label %23, label %11

11:                                               ; preds = %4
  %12 = tail call zeroext i1 (ptr, ...) @SDL_SetError_REAL(ptr noundef nonnull @.str.2, ptr noundef nonnull @.str.3) #13
  %13 = load i32, ptr @SDL_joysticks_locked, align 4
  %14 = add nsw i32 %13, -1
  store i32 %14, ptr @SDL_joysticks_locked, align 4
  %.b4.i = load i1, ptr @SDL_joysticks_initialized, align 1
  %15 = icmp ne i32 %14, 0
  %or.cond.i = select i1 %.b4.i, i1 true, i1 %15
  br i1 %or.cond.i, label %.critedge.i, label %16

16:                                               ; preds = %11
  %17 = tail call i32 @SDL_GetAtomicInt_REAL(ptr noundef nonnull @SDL_joystick_lock_pending) #13
  %18 = icmp eq i32 %17, 0
  br i1 %18, label %19, label %.critedge.i

19:                                               ; preds = %16
  %20 = load ptr, ptr @SDL_joystick_lock, align 8
  tail call void @SDL_LockMutex_REAL(ptr noundef %20) #13
  %21 = load ptr, ptr @SDL_joystick_lock, align 8
  tail call void @SDL_UnlockMutex_REAL(ptr noundef %21) #13
  store ptr null, ptr @SDL_joystick_lock, align 8
  tail call void @SDL_UnlockMutex_REAL(ptr noundef %20) #13
  tail call void @SDL_DestroyMutex_REAL(ptr noundef %20) #13
  br label %SDL_UnlockJoysticks_REAL.exit

.critedge.i:                                      ; preds = %16, %11
  %22 = load ptr, ptr @SDL_joystick_lock, align 8
  tail call void @SDL_UnlockMutex_REAL(ptr noundef %22) #13
  br label %SDL_UnlockJoysticks_REAL.exit

23:                                               ; preds = %4
  %24 = getelementptr inbounds nuw i8, ptr %0, i64 232
  %25 = load i32, ptr %24, align 8
  br i1 %.not, label %29, label %26

26:                                               ; preds = %23
  %27 = getelementptr inbounds nuw i8, ptr %0, i64 236
  %28 = load i32, ptr %27, align 4
  store i32 %28, ptr %1, align 4
  br label %29

29:                                               ; preds = %26, %23
  %30 = load i32, ptr @SDL_joysticks_locked, align 4
  %31 = add nsw i32 %30, -1
  store i32 %31, ptr @SDL_joysticks_locked, align 4
  %.b4.i9 = load i1, ptr @SDL_joysticks_initialized, align 1
  %32 = icmp ne i32 %31, 0
  %or.cond.i10 = select i1 %.b4.i9, i1 true, i1 %32
  br i1 %or.cond.i10, label %.critedge.i11, label %33

33:                                               ; preds = %29
  %34 = tail call i32 @SDL_GetAtomicInt_REAL(ptr noundef nonnull @SDL_joystick_lock_pending) #13
  %35 = icmp eq i32 %34, 0
  br i1 %35, label %36, label %.critedge.i11

36:                                               ; preds = %33
  %37 = load ptr, ptr @SDL_joystick_lock, align 8
  tail call void @SDL_LockMutex_REAL(ptr noundef %37) #13
  %38 = load ptr, ptr @SDL_joystick_lock, align 8
  tail call void @SDL_UnlockMutex_REAL(ptr noundef %38) #13
  store ptr null, ptr @SDL_joystick_lock, align 8
  tail call void @SDL_UnlockMutex_REAL(ptr noundef %37) #13
  tail call void @SDL_DestroyMutex_REAL(ptr noundef %37) #13
  br label %SDL_UnlockJoysticks_REAL.exit

.critedge.i11:                                    ; preds = %33, %29
  %39 = load ptr, ptr @SDL_joystick_lock, align 8
  tail call void @SDL_UnlockMutex_REAL(ptr noundef %39) #13
  br label %SDL_UnlockJoysticks_REAL.exit

SDL_UnlockJoysticks_REAL.exit:                    ; preds = %.critedge.i11, %36, %.critedge.i, %19
  %.0 = phi i32 [ -1, %19 ], [ -1, %.critedge.i ], [ %25, %36 ], [ %25, %.critedge.i11 ]
  ret i32 %.0
}